; Function Attrs: mustprogress nounwind willreturn uwtable
define range(i32 0, 2) i32 @OPENSSL_INIT_set_config_appname(ptr noundef captures(none) %0, ptr noundef readonly captures(address_is_null) %1) local_unnamed_addr #8 {
  %.not = icmp eq ptr %1, null
  br i1 %.not, label %6, label %3

3:                                                ; preds = %2
  %4 = tail call noalias ptr @strdup(ptr noundef nonnull %1) #15
  %5 = icmp eq ptr %4, null
  br i1 %5, label %9, label %6

6:                                                ; preds = %3, %2
  %.0 = phi ptr [ %4, %3 ], [ null, %2 ]
  %7 = getelementptr inbounds nuw i8, ptr %0, i64 8
  %8 = load ptr, ptr %7, align 8, !tbaa !38
  tail call void @free(ptr noundef %8) #15
  store ptr %.0, ptr %7, align 8, !tbaa !38
  br label %9

9:                                                ; preds = %3, %6
  %.06 = phi i32 [ 1, %6 ], [ 0, %3 ]
  ret i32 %.06
}